target datalayout = "e-m:e-p270:32:32-p271:32:32-p272:64:64-i64:64-i128:128-f80:128-n8:16:32:64-S128"
target triple = "x86_64-pc-linux-gnu"

; Function Attrs: mustprogress nounwind uwtable
define noundef zeroext i1 @_ZNK3spv10spirvbin_t10isFlowCtrlENS_2OpE(ptr noundef nonnull align 8 dereferenceable(473) %0, i32 noundef %1) #1 align 2 {
  %3 = alloca i1, align 1
  %4 = alloca ptr, align 8
  %5 = alloca i32, align 4
  store ptr %0, ptr %4, align 8
  store i32 %1, ptr %5, align 4
  %6 = load i32, ptr %5, align 4
  switch i32 %6, label %8 [
    i32 250, label %7
    i32 249, label %7
    i32 251, label %7
    i32 246, label %7
    i32 247, label %7
    i32 248, label %7
    i32 54, label %7
    i32 56, label %7
  ]

7:                                                ; preds = %2, %2, %2, %2, %2, %2, %2, %2
  store i1 true, ptr %3, align 1
  br label %9

8:                                                ; preds = %2
  store i1 false, ptr %3, align 1
  br label %9

9:                                                ; preds = %8, %7
  %10 = load i1, ptr %3, align 1
  ret i1 %10
}