; Function Attrs: mustprogress nofree norecurse nosync nounwind willreturn memory(none) uwtable
define noundef zeroext i1 @_ZNK3spv10spirvbin_t10isFlowCtrlENS_2OpE(ptr nocapture noundef nonnull readnone align 8 dereferenceable(473) %0, i32 noundef %1) local_unnamed_addr #4 align 2 {
  switch i32 %1, label %3 [
    i32 250, label %4
    i32 249, label %4
    i32 251, label %4
    i32 246, label %4
    i32 247, label %4
    i32 248, label %4
    i32 54, label %4
    i32 56, label %4
  ]

3:                                                ; preds = %2
  br label %4

4:                                                ; preds = %2, %2, %2, %2, %2, %2, %2, %2, %3
  %.0 = phi i1 [ false, %3 ], [ true, %2 ], [ true, %2 ], [ true, %2 ], [ true, %2 ], [ true, %2 ], [ true, %2 ], [ true, %2 ], [ true, %2 ]
  ret i1 %.0
}